(dp1
S'METTS MARK'
p2
(dp3
S'to_messages'
p4
F807
sS'deferral_payments'
p5
S'NaN'
p6
sS'expenses'
p7
F94299
sS'poi'
p8
I00
sS'long_term_incentive'
p9
S'NaN'
p10
sS'email_address'
p11
S'mark.metts@enron.com'
p12
sS'from_poi_to_this_person'
p13
F38
sS'deferred_income'
p14
S'NaN'
p15
sS'fraction_from_poi'
p16
F0.047087980173482029
sS'restricted_stock_deferred'
p17
S'NaN'
p18
sS'shared_receipt_with_poi'
p19
F702
sS'loan_advances'
p20
S'NaN'
p21
sS'from_messages'
p22
F29
sS'other'
p23
F1740
sS'director_fees'
p24
S'NaN'
p25
sS'bonus'
p26
F600000
sS'total_stock_value'
p27
F585062
sS'from_this_person_to_poi'
p28
F1
sS'restricted_stock'
p29
F585062
sS'salary'
p30
F365788
sS'total_payments'
p31
F1061827
sS'fraction_to_poi'
p32
F0.034482758620689655
sS'exercised_stock_options'
p33
S'NaN'
p34
ssS'BAXTER JOHN C'
p35
(dp36
g4
S'NaN'
p37
sg5
F1295738
sg7
F11200
sg8
I00
sg9
F1586055
sg11
S'NaN'
p38
sg13
S'NaN'
p39
sg14
F-1386055
sg16
S'NaN'
p40
sg17
g18
sg19
S'NaN'
p41
sg20
g21
sg22
S'NaN'
p42
sg23
F2660303
sg24
g25
sg26
F1200000
sg27
F10623258
sg28
S'NaN'
p43
sg29
F3942714
sg30
F267102
sg31
F5634343
sg32
S'NaN'
p44
sg33
F6680544
ssS'ELLIOTT STEVEN'
p45
(dp46
g4
g37
sg5
g6
sg7
F78552
sg8
I00
sg9
g10
sg11
S'steven.elliott@enron.com'
p47
sg13
g39
sg14
F-400729
sg16
g40
sg17
g18
sg19
g41
sg20
g21
sg22
g42
sg23
F12961
sg24
g25
sg26
F350000
sg27
F6678735
sg28
g43
sg29
F1788391
sg30
F170941
sg31
F211725
sg32
g44
sg33
F4890344
ssS'CORDES WILLIAM R'
p48
(dp49
g4
F764
sg5
g6
sg7
S'NaN'
p50
sg8
I00
sg9
g10
sg11
S'bill.cordes@enron.com'
p51
sg13
F10
sg14
g15
sg16
F0.013089005235602094
sg17
g18
sg19
F58
sg20
g21
sg22
F12
sg23
S'NaN'
p52
sg24
g25
sg26
S'NaN'
p53
sg27
F1038185
sg28
F0
sg29
F386335
sg30
S'NaN'
p54
sg31
S'NaN'
p55
sg32
F0
sg33
F651850
ssS'HANNON KEVIN P'
p56
(dp57
g4
F1045
sg5
g6
sg7
F34039
sg8
I01
sg9
F1617011
sg11
S'kevin.hannon@enron.com'
p58
sg13
F32
sg14
F-3117011
sg16
F0.030622009569377991
sg17
g18
sg19
F1035
sg20
g21
sg22
F32
sg23
F11350
sg24
g25
sg26
F1500000
sg27
F6391065
sg28
F21
sg29
F853064
sg30
F243293
sg31
F288682
sg32
F0.65625
sg33
F5538001
ssS'MORDAUNT KRISTINA M'
p59
(dp60
g4
g37
sg5
g6
sg7
F35018
sg8
I00
sg9
g10
sg11
S'kristina.mordaunt@enron.com'
p61
sg13
g39
sg14
g15
sg16
g40
sg17
g18
sg19
g41
sg20
g21
sg22
g42
sg23
F1411
sg24
g25
sg26
F325000
sg27
F208510
sg28
g43
sg29
F208510
sg30
F267093
sg31
F628522
sg32
g44
sg33
g34
ssS'MEYER ROCKFORD G'
p62
(dp63
g4
F232
sg5
F1848227
sg7
g50
sg8
I00
sg9
g10
sg11
S'rockford.meyer@enron.com'
p64
sg13
F0
sg14
g15
sg16
F0
sg17
g18
sg19
F22
sg20
g21
sg22
F28
sg23
g52
sg24
g25
sg26
g53
sg27
F955873
sg28
F0
sg29
F462384
sg30
g54
sg31
F1848227
sg32
F0
sg33
F493489
ssS'MCMAHON JEFFREY'
p65
(dp66
g4
F2355
sg5
g6
sg7
F137108
sg8
I00
sg9
F694862
sg11
S'jeffrey.mcmahon@enron.com'
p67
sg13
F58
sg14
g15
sg16
F0.024628450106157114
sg17
g18
sg19
F2228
sg20
g21
sg22
F48
sg23
F297353
sg24
g25
sg26
F2600000
sg27
F1662855
sg28
F26
sg29
F558801
sg30
F370448
sg31
F4099771
sg32
F0.54166666666666663
sg33
F1104054
ssS'HORTON STANLEY C'
p68
(dp69
g4
F2350
sg5
F3131860
sg7
g50
sg8
I00
sg9
g10
sg11
S'stanley.horton@enron.com'
p70
sg13
F44
sg14
g15
sg16
F0.01872340425531915
sg17
g18
sg19
F1074
sg20
g21
sg22
F1073
sg23
g52
sg24
g25
sg26
g53
sg27
F7256648
sg28
F15
sg29
F2046079
sg30
g54
sg31
F3131860
sg32
F0.013979496738117428
sg33
F5210569
ssS'PIPER GREGORY F'
p71
(dp72
g4
F1238
sg5
F1130036
sg7
F43057
sg8
I00
sg9
g10
sg11
S'greg.piper@enron.com'
p73
sg13
F61
sg14
F-33333
sg16
F0.049273021001615507
sg17
F-409554
sg19
F742
sg20
g21
sg22
F222
sg23
F778
sg24
g25
sg26
F400000
sg27
F880290
sg28
F48
sg29
F409554
sg30
F197091
sg31
F1737629
sg32
F0.21621621621621623
sg33
F880290
ssS'HUMPHREY GENE E'
p74
(dp75
g4
F128
sg5
F2964506
sg7
F4994
sg8
I00
sg9
g10
sg11
S'gene.humphrey@enron.com'
p76
sg13
F10
sg14
g15
sg16
F0.078125
sg17
g18
sg19
F119
sg20
g21
sg22
F17
sg23
g52
sg24
g25
sg26
g53
sg27
F2282768
sg28
F17
sg29
S'NaN'
p77
sg30
F130724
sg31
F3100224
sg32
F1
sg33
F2282768
ssS'UMANOFF ADAM S'
p78
(dp79
g4
F111
sg5
g6
sg7
F53122
sg8
I00
sg9
g10
sg11
S'adam.umanoff@enron.com'
p80
sg13
F12
sg14
g15
sg16
F0.10810810810810811
sg17
g18
sg19
F41
sg20
g21
sg22
F18
sg23
g52
sg24
g25
sg26
F788750
sg27
S'NaN'
p81
sg28
F0
sg29
g77
sg30
F288589
sg31
F1130461
sg32
F0
sg33
g34
ssS'BLACHMAN JEREMY M'
p82
(dp83
g4
F2475
sg5
g6
sg7
F84208
sg8
I00
sg9
F831809
sg11
S'jeremy.blachman@enron.com'
p84
sg13
F25
sg14
g15
sg16
F0.010101010101010102
sg17
g18
sg19
F2326
sg20
g21
sg22
F14
sg23
F272
sg24
g25
sg26
F850000
sg27
F954354
sg28
F2
sg29
F189041
sg30
F248546
sg31
F2014835
sg32
F0.14285714285714285
sg33
F765313
ssS'SUNDE MARTIN'
p85
(dp86
g4
F2647
sg5
g6
sg7
g50
sg8
I00
sg9
F476451
sg11
S'marty.sunde@enron.com'
p87
sg13
F37
sg14
g15
sg16
F0.013978088401964487
sg17
g18
sg19
F2565
sg20
g21
sg22
F38
sg23
F111122
sg24
g25
sg26
F700000
sg27
F698920
sg28
F13
sg29
F698920
sg30
F257486
sg31
F1545059
sg32
F0.34210526315789475
sg33
g34
ssS'GIBBS DANA R'
p88
(dp89
g4
F169
sg5
F504610
sg7
g50
sg8
I00
sg9
F461912
sg11
S'dana.gibbs@enron.com'
p90
sg13
F0
sg14
g15
sg16
F0
sg17
g18
sg19
F23
sg20
g21
sg22
F12
sg23
g52
sg24
g25
sg26
g53
sg27
F2218275
sg28
F0
sg29
g77
sg30
g54
sg31
F966522
sg32
F0
sg33
F2218275
ssS'LOWRY CHARLES P'
p91
(dp92
g4
g37
sg5
g6
sg7
g50
sg8
I00
sg9
g10
sg11
g38
sg13
g39
sg14
g15
sg16
g40
sg17
F-153686
sg19
g41
sg20
g21
sg22
g42
sg23
g52
sg24
g25
sg26
g53
sg27
F372205
sg28
g43
sg29
F153686
sg30
g54
sg31
g55
sg32
g44
sg33
F372205
ssS'COLWELL WESLEY'
p93
(dp94
g4
F1758
sg5
F27610
sg7
F16514
sg8
I01
sg9
g10
sg11
S'wes.colwell@enron.com'
p95
sg13
F240
sg14
F-144062
sg16
F0.13651877133105803
sg17
g18
sg19
F1132
sg20
g21
sg22
F40
sg23
F101740
sg24
g25
sg26
F1200000
sg27
F698242
sg28
F11
sg29
F698242
sg30
F288542
sg31
F1490344
sg32
F0.27500000000000002
sg33
g34
ssS'MULLER MARK S'
p96
(dp97
g4
F136
sg5
F842924
sg7
g50
sg8
I00
sg9
F1725545
sg11
S's..muller@enron.com'
p98
sg13
F12
sg14
F-719000
sg16
F0.088235294117647065
sg17
g18
sg19
F114
sg20
g21
sg22
F16
sg23
F947
sg24
g25
sg26
F1100000
sg27
F1416848
sg28
F0
sg29
F360528
sg30
F251654
sg31
F3202070
sg32
F0
sg33
F1056320
ssS'JACKSON CHARLENE R'
p99
(dp100
g4
F258
sg5
g6
sg7
F10181
sg8
I00
sg9
g10
sg11
S'charlene.jackson@enron.com'
p101
sg13
F25
sg14
g15
sg16
F0.096899224806201556
sg17
g18
sg19
F117
sg20
g21
sg22
F56
sg23
F2435
sg24
g25
sg26
F250000
sg27
F725735
sg28
F19
sg29
F540672
sg30
F288558
sg31
F551174
sg32
F0.3392857142857143
sg33
F185063
ssS'WESTFAHL RICHARD K'
p102
(dp103
g4
g37
sg5
g6
sg7
F51870
sg8
I00
sg9
F256191
sg11
S'dick.westfahl@enron.com'
p104
sg13
g39
sg14
F-10800
sg16
g40
sg17
g18
sg19
g41
sg20
g21
sg22
g42
sg23
F401130
sg24
g25
sg26
g53
sg27
F384930
sg28
g43
sg29
F384930
sg30
F63744
sg31
F762135
sg32
g44
sg33
g34
ssS'WALTERS GARETH W'
p105
(dp106
g4
g37
sg5
F53625
sg7
F33785
sg8
I00
sg9
g10
sg11
g38
sg13
g39
sg14
g15
sg16
g40
sg17
g18
sg19
g41
sg20
g21
sg22
g42
sg23
g52
sg24
g25
sg26
g53
sg27
F1030329
sg28
g43
sg29
g77
sg30
g54
sg31
F87410
sg32
g44
sg33
F1030329
ssS'WALLS JR ROBERT H'
p107
(dp108
g4
F671
sg5
g6
sg7
F50936
sg8
I00
sg9
F540751
sg11
S'rob.walls@enron.com'
p109
sg13
F17
sg14
g15
sg16
F0.02533532041728763
sg17
g18
sg19
F215
sg20
g21
sg22
F146
sg23
F2
sg24
g25
sg26
F850000
sg27
F5898997
sg28
F0
sg29
F1552453
sg30
F357091
sg31
F1798780
sg32
F0
sg33
F4346544
ssS'KITCHEN LOUISE'
p110
(dp111
g4
F8305
sg5
g6
sg7
F5774
sg8
I00
sg9
g10
sg11
S'louise.kitchen@enron.com'
p112
sg13
F251
sg14
g15
sg16
F0.030222757375075255
sg17
g18
sg19
F3669
sg20
g21
sg22
F1728
sg23
F93925
sg24
g25
sg26
F3100000
sg27
F547143
sg28
F194
sg29
F466101
sg30
F271442
sg31
F3471141
sg32
F0.11226851851851852
sg33
F81042
ssS'CHAN RONNIE'
p113
(dp114
g4
g37
sg5
g6
sg7
g50
sg8
I00
sg9
g10
sg11
g38
sg13
g39
sg14
F-98784
sg16
g40
sg17
F-32460
sg19
g41
sg20
g21
sg22
g42
sg23
g52
sg24
F98784
sg26
g53
sg27
g81
sg28
g43
sg29
F32460
sg30
g54
sg31
g55
sg32
g44
sg33
g34
ssS'BELFER ROBERT'
p115
(dp116
g4
g37
sg5
F-102500
sg7
g50
sg8
I00
sg9
g10
sg11
g38
sg13
g39
sg14
g15
sg16
g40
sg17
F44093
sg19
g41
sg20
g21
sg22
g42
sg23
g52
sg24
F3285
sg26
g53
sg27
F-44093
sg28
g43
sg29
g77
sg30
g54
sg31
F102500
sg32
g44
sg33
F3285
ssS'SHANKMAN JEFFREY A'
p117
(dp118
g4
F3221
sg5
g6
sg7
F178979
sg8
I00
sg9
F554422
sg11
S'jeffrey.shankman@enron.com'
p119
sg13
F94
sg14
g15
sg16
F0.029183483390251473
sg17
g18
sg19
F1730
sg20
g21
sg22
F2681
sg23
F1191
sg24
g25
sg26
F2000000
sg27
F2072035
sg28
F83
sg29
F630137
sg30
F304110
sg31
F3038702
sg32
F0.030958597538232002
sg33
F1441898
ssS'WODRASKA JOHN'
p120
(dp121
g4
g37
sg5
g6
sg7
g50
sg8
I00
sg9
g10
sg11
S'john.wodraska@enron.com'
p122
sg13
g39
sg14
g15
sg16
g40
sg17
g18
sg19
g41
sg20
g21
sg22
g42
sg23
F189583
sg24
g25
sg26
g53
sg27
g81
sg28
g43
sg29
g77
sg30
g54
sg31
F189583
sg32
g44
sg33
g34
ssS'BERGSIEKER RICHARD P'
p123
(dp124
g4
F383
sg5
g6
sg7
F59175
sg8
I00
sg9
F180250
sg11
S'rick.bergsieker@enron.com'
p125
sg13
F4
sg14
F-485813
sg16
F0.010443864229765013
sg17
g18
sg19
F233
sg20
g21
sg22
F59
sg23
F427316
sg24
g25
sg26
F250000
sg27
F659249
sg28
F0
sg29
F659249
sg30
F187922
sg31
F618850
sg32
F0
sg33
g34
ssS'URQUHART JOHN A'
p126
(dp127
g4
g37
sg5
g6
sg7
F228656
sg8
I00
sg9
g10
sg11
g38
sg13
g39
sg14
F-36666
sg16
g40
sg17
g18
sg19
g41
sg20
g21
sg22
g42
sg23
g52
sg24
F36666
sg26
g53
sg27
g81
sg28
g43
sg29
g77
sg30
g54
sg31
F228656
sg32
g44
sg33
g34
ssS'BIBI PHILIPPE A'
p128
(dp129
g4
F1607
sg5
g6
sg7
F38559
sg8
I00
sg9
F369721
sg11
S'philippe.bibi@enron.com'
p130
sg13
F23
sg14
g15
sg16
F0.01431238332296204
sg17
g18
sg19
F1336
sg20
g21
sg22
F40
sg23
F425688
sg24
g25
sg26
F1000000
sg27
F1843816
sg28
F8
sg29
F378082
sg30
F213625
sg31
F2047593
sg32
F0.20000000000000001
sg33
F1465734
ssS'PIRO JIM'
p131
(dp132
g4
F58
sg5
g6
sg7
g50
sg8
I00
sg9
g10
sg11
S'jim.piro@enron.com'
p133
sg13
F0
sg14
g15
sg16
F0
sg17
g18
sg19
F3
sg20
g21
sg22
F16
sg23
g52
sg24
g25
sg26
g53
sg27
F47304
sg28
F1
sg29
F47304
sg30
g54
sg31
g55
sg32
F0.0625
sg33
g34
ssS'RIEKER PAULA H'
p134
(dp135
g4
F1328
sg5
F214678
sg7
F33271
sg8
I01
sg9
g10
sg11
S'paula.rieker@enron.com'
p136
sg13
F35
sg14
F-100000
sg16
F0.02635542168674699
sg17
g18
sg19
F1258
sg20
g21
sg22
F82
sg23
F1950
sg24
g25
sg26
F700000
sg27
F1918887
sg28
F48
sg29
F283649
sg30
F249201
sg31
F1099100
sg32
F0.58536585365853655
sg33
F1635238
ssS'WHALEY DAVID A'
p137
(dp138
g4
g37
sg5
g6
sg7
g50
sg8
I00
sg9
g10
sg11
g38
sg13
g39
sg14
g15
sg16
g40
sg17
g18
sg19
g41
sg20
g21
sg22
g42
sg23
g52
sg24
g25
sg26
g53
sg27
F98718
sg28
g43
sg29
g77
sg30
g54
sg31
g55
sg32
g44
sg33
F98718
ssS'BECK SALLY W'
p139
(dp140
g4
F7315
sg5
g6
sg7
F37172
sg8
I00
sg9
g10
sg11
S'sally.beck@enron.com'
p141
sg13
F144
sg14
g15
sg16
F0.019685577580314421
sg17
g18
sg19
F2639
sg20
g21
sg22
F4343
sg23
F566
sg24
g25
sg26
F700000
sg27
F126027
sg28
F386
sg29
F126027
sg30
F231330
sg31
F969068
sg32
F0.088878655307391211
sg33
g34
ssS'HAUG DAVID L'
p142
(dp143
g4
F573
sg5
g6
sg7
F475
sg8
I00
sg9
g10
sg11
S'david.haug@enron.com'
p144
sg13
F4
sg14
g15
sg16
F0.0069808027923211171
sg17
g18
sg19
F471
sg20
g21
sg22
F19
sg23
g52
sg24
g25
sg26
g53
sg27
F2217299
sg28
F7
sg29
F2217299
sg30
g54
sg31
F475
sg32
F0.36842105263157893
sg33
g34
ssS'ECHOLS JOHN B'
p145
(dp146
g4
g37
sg5
g6
sg7
F21530
sg8
I00
sg9
F2234774
sg11
S'john.echols@enron.com'
p147
sg13
g39
sg14
g15
sg16
g40
sg17
g18
sg19
g41
sg20
g21
sg22
g42
sg23
F53775
sg24
g25
sg26
F200000
sg27
F1008941
sg28
g43
sg29
F407503
sg30
F182245
sg31
F2692324
sg32
g44
sg33
F601438
ssS'MENDELSOHN JOHN'
p148
(dp149
g4
g37
sg5
g6
sg7
F148
sg8
I00
sg9
g10
sg11
g38
sg13
g39
sg14
F-103750
sg16
g40
sg17
g18
sg19
g41
sg20
g21
sg22
g42
sg23
g52
sg24
F103750
sg26
g53
sg27
g81
sg28
g43
sg29
g77
sg30
g54
sg31
F148
sg32
g44
sg33
g34
ssS'HICKERSON GARY J'
p150
(dp151
g4
F1320
sg5
g6
sg7
F98849
sg8
I00
sg9
F69223
sg11
S'gary.hickerson@enron.com'
p152
sg13
F40
sg14
g15
sg16
F0.030303030303030304
sg17
g18
sg19
F900
sg20
g21
sg22
F27
sg23
F1936
sg24
g25
sg26
F1700000
sg27
F441096
sg28
F1
sg29
F441096
sg30
F211788
sg31
F2081796
sg32
F0.037037037037037035
sg33
g34
ssS'CLINE KENNETH W'
p153
(dp154
g4
g37
sg5
g6
sg7
g50
sg8
I00
sg9
g10
sg11
g38
sg13
g39
sg14
g15
sg16
g40
sg17
F-472568
sg19
g41
sg20
g21
sg22
g42
sg23
g52
sg24
g25
sg26
g53
sg27
F189518
sg28
g43
sg29
F662086
sg30
g54
sg31
g55
sg32
g44
sg33
g34
ssS'LEWIS RICHARD'
p155
(dp156
g4
F952
sg5
g6
sg7
g50
sg8
I00
sg9
g10
sg11
S'richard.lewis@enron.com'
p157
sg13
F10
sg14
g15
sg16
F0.01050420168067227
sg17
g18
sg19
F739
sg20
g21
sg22
F26
sg23
g52
sg24
g25
sg26
g53
sg27
F850477
sg28
F0
sg29
g77
sg30
g54
sg31
g55
sg32
F0
sg33
F850477
ssS'HAYES ROBERT E'
p158
(dp159
g4
F504
sg5
F7961
sg7
g50
sg8
I00
sg9
g10
sg11
S'robert.hayes@enron.com'
p160
sg13
F16
sg14
g15
sg16
F0.031746031746031744
sg17
g18
sg19
F50
sg20
g21
sg22
F12
sg23
g52
sg24
g25
sg26
g53
sg27
F151418
sg28
F0
sg29
F151418
sg30
g54
sg31
F7961
sg32
F0
sg33
g34
ssS'KOPPER MICHAEL J'
p161
(dp162
g4
g37
sg5
g6
sg7
F118134
sg8
I01
sg9
F602671
sg11
S'michael.kopper@enron.com'
p163
sg13
g39
sg14
g15
sg16
g40
sg17
g18
sg19
g41
sg20
g21
sg22
g42
sg23
F907502
sg24
g25
sg26
F800000
sg27
F985032
sg28
g43
sg29
F985032
sg30
F224305
sg31
F2652612
sg32
g44
sg33
g34
ssS'LEFF DANIEL P'
p164
(dp165
g4
F2822
sg5
g6
sg7
g50
sg8
I00
sg9
F1387399
sg11
S'dan.leff@enron.com'
p166
sg13
F67
sg14
g15
sg16
F0.023742026931254431
sg17
g18
sg19
F2672
sg20
g21
sg22
F63
sg23
F3083
sg24
g25
sg26
F1000000
sg27
F360528
sg28
F14
sg29
F360528
sg30
F273746
sg31
F2664228
sg32
F0.22222222222222221
sg33
g34
ssS'LAVORATO JOHN J'
p167
(dp168
g4
F7259
sg5
g6
sg7
F49537
sg8
I00
sg9
F2035380
sg11
S'john.lavorato@enron.com'
p169
sg13
F528
sg14
g15
sg16
F0.072737291637966661
sg17
g18
sg19
F3962
sg20
g21
sg22
F2585
sg23
F1552
sg24
g25
sg26
F8000000
sg27
F5167144
sg28
F411
sg29
F1008149
sg30
F339288
sg31
F10425757
sg32
F0.15899419729206962
sg33
F4158995
ssS'BERBERIAN DAVID'
p170
(dp171
g4
g37
sg5
g6
sg7
F11892
sg8
I00
sg9
g10
sg11
S'david.berberian@enron.com'
p172
sg13
g39
sg14
g15
sg16
g40
sg17
g18
sg19
g41
sg20
g21
sg22
g42
sg23
g52
sg24
g25
sg26
g53
sg27
F2493616
sg28
g43
sg29
F869220
sg30
F216582
sg31
F228474
sg32
g44
sg33
F1624396
ssS'DETMERING TIMOTHY J'
p173
(dp174
g4
g37
sg5
F875307
sg7
F52255
sg8
I00
sg9
F415657
sg11
S'timothy.detmering@enron.com'
p175
sg13
g39
sg14
F-775241
sg16
g40
sg17
F-315068
sg19
g41
sg20
g21
sg22
g42
sg23
F1105
sg24
g25
sg26
F425000
sg27
F2027865
sg28
g43
sg29
F315068
sg30
F210500
sg31
F1204583
sg32
g44
sg33
F2027865
ssS'WAKEHAM JOHN'
p176
(dp177
g4
g37
sg5
g6
sg7
F103773
sg8
I00
sg9
g10
sg11
g38
sg13
g39
sg14
g15
sg16
g40
sg17
g18
sg19
g41
sg20
g21
sg22
g42
sg23
g52
sg24
F109298
sg26
g53
sg27
g81
sg28
g43
sg29
g77
sg30
g54
sg31
F213071
sg32
g44
sg33
g34
ssS'POWERS WILLIAM'
p178
(dp179
g4
F653
sg5
g6
sg7
g50
sg8
I00
sg9
g10
sg11
S'ken.powers@enron.com'
p180
sg13
F0
sg14
F-17500
sg16
F0
sg17
g18
sg19
F12
sg20
g21
sg22
F26
sg23
g52
sg24
F17500
sg26
g53
sg27
g81
sg28
F0
sg29
g77
sg30
g54
sg31
g55
sg32
F0
sg33
g34
ssS'GOLD JOSEPH'
p181
(dp182
g4
g37
sg5
g6
sg7
g50
sg8
I00
sg9
F304805
sg11
S'joe.gold@enron.com'
p183
sg13
g39
sg14
g15
sg16
g40
sg17
g18
sg19
g41
sg20
g21
sg22
g42
sg23
F819288
sg24
g25
sg26
F750000
sg27
F877611
sg28
g43
sg29
F441096
sg30
F272880
sg31
F2146973
sg32
g44
sg33
F436515
ssS'BANNANTINE JAMES M'
p184
(dp185
g4
F566
sg5
g6
sg7
F56301
sg8
I00
sg9
g10
sg11
S'james.bannantine@enron.com'
p186
sg13
F39
sg14
F-5104
sg16
F0.068904593639575976
sg17
F-560222
sg19
F465
sg20
g21
sg22
F29
sg23
F864523
sg24
g25
sg26
g53
sg27
F5243487
sg28
F0
sg29
F1757552
sg30
F477
sg31
F916197
sg32
F0
sg33
F4046157
ssS'DUNCAN JOHN H'
p187
(dp188
g4
g37
sg5
g6
sg7
g50
sg8
I00
sg9
g10
sg11
g38
sg13
g39
sg14
F-25000
sg16
g40
sg17
g18
sg19
g41
sg20
g21
sg22
g42
sg23
g52
sg24
F102492
sg26
g53
sg27
F371750
sg28
g43
sg29
g77
sg30
g54
sg31
F77492
sg32
g44
sg33
F371750
ssS'SHAPIRO RICHARD S'
p189
(dp190
g4
F15149
sg5
g6
sg7
F137767
sg8
I00
sg9
g10
sg11
S'richard.shapiro@enron.com'
p191
sg13
F74
sg14
g15
sg16
F0.0048848108786058485
sg17
g18
sg19
F4527
sg20
g21
sg22
F1215
sg23
F705
sg24
g25
sg26
F650000
sg27
F987001
sg28
F65
sg29
F379164
sg30
F269076
sg31
F1057548
sg32
F0.053497942386831275
sg33
F607837
ssS'SHERRIFF JOHN R'
p192
(dp193
g4
F3187
sg5
g6
sg7
g50
sg8
I00
sg9
F554422
sg11
S'john.sherriff@enron.com'
p194
sg13
F28
sg14
g15
sg16
F0.0087856918732350173
sg17
g18
sg19
F2103
sg20
g21
sg22
F92
sg23
F1852186
sg24
g25
sg26
F1500000
sg27
F3128982
sg28
F23
sg29
F1293424
sg30
F428780
sg31
F4335388
sg32
F0.25
sg33
F1835558
ssS'SHELBY REX'
p195
(dp196
g4
F225
sg5
g6
sg7
F22884
sg8
I01
sg9
g10
sg11
S'rex.shelby@enron.com'
p197
sg13
F13
sg14
F-4167
sg16
F0.057777777777777775
sg17
g18
sg19
F91
sg20
g21
sg22
F39
sg23
F1573324
sg24
g25
sg26
F200000
sg27
F2493616
sg28
F14
sg29
F869220
sg30
F211844
sg31
F2003885
sg32
F0.35897435897435898
sg33
F1624396
ssS'LEMAISTRE CHARLES'
p198
(dp199
g4
g37
sg5
g6
sg7
g50
sg8
I00
sg9
g10
sg11
g38
sg13
g39
sg14
F-25000
sg16
g40
sg17
g18
sg19
g41
sg20
g21
sg22
g42
sg23
g52
sg24
F112492
sg26
g53
sg27
F412878
sg28
g43
sg29
g77
sg30
g54
sg31
F87492
sg32
g44
sg33
F412878
ssS'DEFFNER JOSEPH M'
p200
(dp201
g4
F714
sg5
g6
sg7
F41626
sg8
I00
sg9
F335349
sg11
S'joseph.deffner@enron.com'
p202
sg13
F115
sg14
g15
sg16
F0.16106442577030813
sg17
g18
sg19
F552
sg20
g21
sg22
F74
sg23
F25553
sg24
g25
sg26
F600000
sg27
F159211
sg28
F4
sg29
F141833
sg30
F206121
sg31
F1208649
sg32
F0.054054054054054057
sg33
F17378
ssS'KISHKILL JOSEPH G'
p203
(dp204
g4
g37
sg5
g6
sg7
F116335
sg8
I00
sg9
g10
sg11
S'joe.kishkill@enron.com'
p205
sg13
g39
sg14
F-51042
sg16
g40
sg17
g18
sg19
g41
sg20
g21
sg22
g42
sg23
F465357
sg24
g25
sg26
g53
sg27
F1034346
sg28
g43
sg29
F1034346
sg30
F174246
sg31
F704896
sg32
g44
sg33
g34
ssS'WHALLEY LAWRENCE G'
p206
(dp207
g4
F6019
sg5
g6
sg7
F57838
sg8
I00
sg9
F808346
sg11
S'greg.whalley@enron.com'
p208
sg13
F186
sg14
g15
sg16
F0.030902143213158331
sg17
g18
sg19
F3920
sg20
g21
sg22
F556
sg23
F301026
sg24
g25
sg26
F3000000
sg27
F6079137
sg28
F24
sg29
F2796177
sg30
F510364
sg31
F4677574
sg32
F0.043165467625899283
sg33
F3282960
ssS'MCCARTY DANNY J'
p209
(dp210
g4
F1433
sg5
g6
sg7
g50
sg8
I00
sg9
g10
sg11
S'danny.mccarty@enron.com'
p211
sg13
F25
sg14
g15
sg16
F0.017445917655268667
sg17
g18
sg19
F508
sg20
g21
sg22
F215
sg23
g52
sg24
g25
sg26
g53
sg27
F758931
sg28
F2
sg29
F94556
sg30
g54
sg31
g55
sg32
F0.0093023255813953487
sg33
F664375
ssS'MCCONNELL MICHAEL S'
p212
(dp213
g4
F3329
sg5
g6
sg7
F81364
sg8
I00
sg9
F554422
sg11
S'mike.mcconnell@enron.com'
p214
sg13
F92
sg14
g15
sg16
F0.027635926704716131
sg17
g18
sg19
F2189
sg20
g21
sg22
F2742
sg23
F540
sg24
g25
sg26
F1100000
sg27
F3101279
sg28
F194
sg29
F1478269
sg30
F365038
sg31
F2101364
sg32
F0.070751276440554345
sg33
F1623010
ssS'DELAINEY DAVID W'
p215
(dp216
g4
F3093
sg5
g6
sg7
F86174
sg8
I01
sg9
F1294981
sg11
S'david.delainey@enron.com'
p217
sg13
F66
sg14
g15
sg16
F0.02133850630455868
sg17
g18
sg19
F2097
sg20
g21
sg22
F3069
sg23
F1661
sg24
g25
sg26
F3000000
sg27
F3614261
sg28
F609
sg29
F1323148
sg30
F365163
sg31
F4747979
sg32
F0.19843597262952101
sg33
F2291113
ssS'SULLIVAN-SHAKLOVITZ COLLEEN'
p218
(dp219
g4
g37
sg5
F181993
sg7
g50
sg8
I00
sg9
F554422
sg11
g38
sg13
g39
sg14
g15
sg16
g40
sg17
g18
sg19
g41
sg20
g21
sg22
g42
sg23
F162
sg24
g25
sg26
F100000
sg27
F1362375
sg28
g43
sg29
g77
sg30
F162779
sg31
F999356
sg32
g44
sg33
F1362375
ssS'WROBEL BRUCE'
p220
(dp221
g4
g37
sg5
g6
sg7
g50
sg8
I00
sg9
g10
sg11
g38
sg13
g39
sg14
g15
sg16
g40
sg17
g18
sg19
g41
sg20
g21
sg22
g42
sg23
g52
sg24
g25
sg26
g53
sg27
F139130
sg28
g43
sg29
g77
sg30
g54
sg31
g55
sg32
g44
sg33
F139130
ssS'LINDHOLM TOD A'
p222
(dp223
g4
g37
sg5
F204075
sg7
F57727
sg8
I00
sg9
F175000
sg11
S'tod.lindholm@enron.com'
p224
sg13
g39
sg14
g15
sg16
g40
sg17
g18
sg19
g41
sg20
g21
sg22
g42
sg23
F2630
sg24
g25
sg26
F200000
sg27
F3064208
sg28
g43
sg29
F514847
sg30
F236457
sg31
F875889
sg32
g44
sg33
F2549361
ssS'MEYER JEROME J'
p225
(dp226
g4
g37
sg5
g6
sg7
F2151
sg8
I00
sg9
g10
sg11
g38
sg13
g39
sg14
F-38346
sg16
g40
sg17
g18
sg19
g41
sg20
g21
sg22
g42
sg23
g52
sg24
F38346
sg26
g53
sg27
g81
sg28
g43
sg29
g77
sg30
g54
sg31
F2151
sg32
g44
sg33
g34
ssS'LAY KENNETH L'
p227
(dp228
g4
F4273
sg5
F202911
sg7
F99832
sg8
I01
sg9
F3600000
sg11
S'kenneth.lay@enron.com'
p229
sg13
F123
sg14
F-300000
sg16
F0.028785396676807865
sg17
g18
sg19
F2411
sg20
F81525000
sg22
F36
sg23
F10359729
sg24
g25
sg26
F7000000
sg27
F49110078
sg28
F16
sg29
F14761694
sg30
F1072321
sg31
F103559793
sg32
F0.44444444444444442
sg33
F34348384
ssS'BUTTS ROBERT H'
p230
(dp231
g4
g37
sg5
g6
sg7
F9410
sg8
I00
sg9
F175000
sg11
S'bob.butts@enron.com'
p232
sg13
g39
sg14
F-75000
sg16
g40
sg17
g18
sg19
g41
sg20
g21
sg22
g42
sg23
F150656
sg24
g25
sg26
F750000
sg27
F417619
sg28
g43
sg29
F417619
sg30
F261516
sg31
F1271582
sg32
g44
sg33
g34
ssS'OLSON CINDY K'
p233
(dp234
g4
F1184
sg5
F77716
sg7
F63791
sg8
I00
sg9
F100000
sg11
S'cindy.olson@enron.com'
p235
sg13
F20
sg14
g15
sg16
F0.016891891891891893
sg17
g18
sg19
F856
sg20
g21
sg22
F52
sg23
F972
sg24
g25
sg26
F750000
sg27
F2606763
sg28
F15
sg29
F969729
sg30
F329078
sg31
F1321557
sg32
F0.28846153846153844
sg33
F1637034
ssS'MCDONALD REBECCA'
p236
(dp237
g4
F894
sg5
g6
sg7
g50
sg8
I00
sg9
g10
sg11
S'rebecca.mcdonald@enron.com'
p238
sg13
F54
sg14
g15
sg16
F0.060402684563758392
sg17
g18
sg19
F720
sg20
g21
sg22
F13
sg23
g52
sg24
g25
sg26
g53
sg27
F1691366
sg28
F1
sg29
F934065
sg30
g54
sg31
g55
sg32
F0.076923076923076927
sg33
F757301
ssS'CUMBERLAND MICHAEL S'
p239
(dp240
g4
g37
sg5
g6
sg7
F22344
sg8
I00
sg9
F275000
sg11
g38
sg13
g39
sg14
g15
sg16
g40
sg17
g18
sg19
g41
sg20
g21
sg22
g42
sg23
F713
sg24
g25
sg26
F325000
sg27
F207940
sg28
g43
sg29
F207940
sg30
F184899
sg31
F807956
sg32
g44
sg33
g34
ssS'GAHN ROBERT S'
p241
(dp242
g4
g37
sg5
F73122
sg7
F50080
sg8
I00
sg9
g10
sg11
g38
sg13
g39
sg14
F-1042
sg16
g40
sg17
g18
sg19
g41
sg20
g21
sg22
g42
sg23
F76547
sg24
g25
sg26
F509870
sg27
F318607
sg28
g43
sg29
F235370
sg30
F192008
sg31
F900585
sg32
g44
sg33
F83237
ssS'MCCLELLAN GEORGE'
p243
(dp244
g4
F1744
sg5
g6
sg7
F228763
sg8
I00
sg9
g10
sg11
S'george.mcclellan@enron.com'
p245
sg13
F52
sg14
F-125000
sg16
F0.029816513761467892
sg17
g18
sg19
F1469
sg20
g21
sg22
F49
sg23
F51587
sg24
g25
sg26
F900000
sg27
F947861
sg28
F0
sg29
F441096
sg30
F263413
sg31
F1318763
sg32
F0
sg33
F506765
ssS'HERMANN ROBERT J'
p246
(dp247
g4
g37
sg5
g6
sg7
F48357
sg8
I00
sg9
F150000
sg11
S'robert.hermann@enron.com'
p248
sg13
g39
sg14
F-280000
sg16
g40
sg17
g18
sg19
g41
sg20
g21
sg22
g42
sg23
F416441
sg24
g25
sg26
F700000
sg27
F668132
sg28
g43
sg29
F480632
sg30
F262663
sg31
F1297461
sg32
g44
sg33
F187500
ssS'SCRIMSHAW MATTHEW'
p249
(dp250
g4
g37
sg5
g6
sg7
g50
sg8
I00
sg9
g10
sg11
S'matthew.scrimshaw@enron.com'
p251
sg13
g39
sg14
g15
sg16
g40
sg17
g18
sg19
g41
sg20
g21
sg22
g42
sg23
g52
sg24
g25
sg26
g53
sg27
F759557
sg28
g43
sg29
g77
sg30
g54
sg31
g55
sg32
g44
sg33
F759557
ssS'GATHMANN WILLIAM D'
p252
(dp253
g4
g37
sg5
g6
sg7
g50
sg8
I00
sg9
g10
sg11
g38
sg13
g39
sg14
g15
sg16
g40
sg17
F-72419
sg19
g41
sg20
g21
sg22
g42
sg23
g52
sg24
g25
sg26
g53
sg27
F1945360
sg28
g43
sg29
F264013
sg30
g54
sg31
g55
sg32
g44
sg33
F1753766
ssS'HAEDICKE MARK E'
p254
(dp255
g4
F4009
sg5
F2157527
sg7
F76169
sg8
I00
sg9
F983346
sg11
S'mark.haedicke@enron.com'
p256
sg13
F180
sg14
F-934484
sg16
F0.04489897730107259
sg17
F-329825
sg19
F1847
sg20
g21
sg22
F1941
sg23
F52382
sg24
g25
sg26
F1150000
sg27
F803094
sg28
F61
sg29
F524169
sg30
F374125
sg31
F3859065
sg32
F0.031427099433281813
sg33
F608750
ssS'BOWEN JR RAYMOND M'
p257
(dp258
g4
F1858
sg5
g6
sg7
F65907
sg8
I01
sg9
F974293
sg11
S'raymond.bowen@enron.com'
p259
sg13
F140
sg14
F-833
sg16
F0.075349838536060282
sg17
g18
sg19
F1593
sg20
g21
sg22
F27
sg23
F1621
sg24
g25
sg26
F1350000
sg27
F252055
sg28
F15
sg29
F252055
sg30
F278601
sg31
F2669589
sg32
F0.55555555555555558
sg33
g34
ssS'GILLIS JOHN'
p260
(dp261
g4
g37
sg5
g6
sg7
g50
sg8
I00
sg9
g10
sg11
g38
sg13
g39
sg14
g15
sg16
g40
sg17
g18
sg19
g41
sg20
g21
sg22
g42
sg23
g52
sg24
g25
sg26
g53
sg27
F85641
sg28
g43
sg29
F75838
sg30
g54
sg31
g55
sg32
g44
sg33
F9803
ssS'FITZGERALD JAY L'
p262
(dp263
g4
F936
sg5
g6
sg7
F23870
sg8
I00
sg9
F556416
sg11
S'jay.fitzgerald@enron.com'
p264
sg13
F1
sg14
g15
sg16
F0.0010683760683760685
sg17
g18
sg19
F723
sg20
g21
sg22
F16
sg23
F285414
sg24
g25
sg26
F350000
sg27
F1621236
sg28
F8
sg29
F956775
sg30
F199157
sg31
F1414857
sg32
F0.5
sg33
F664461
ssS'MORAN MICHAEL P'
p265
(dp266
g4
F672
sg5
g6
sg7
g50
sg8
I00
sg9
g10
sg11
S'michael.moran@enron.com'
p267
sg13
F0
sg14
g15
sg16
F0
sg17
g18
sg19
F127
sg20
g21
sg22
F19
sg23
g52
sg24
g25
sg26
g53
sg27
F221141
sg28
F0
sg29
F161602
sg30
g54
sg31
g55
sg32
F0
sg33
F59539
ssS'REDMOND BRIAN L'
p268
(dp269
g4
F1671
sg5
g6
sg7
F14689
sg8
I00
sg9
g10
sg11
S'brian.redmond@enron.com'
p270
sg13
F204
sg14
g15
sg16
F0.12208258527827648
sg17
g18
sg19
F1063
sg20
g21
sg22
F221
sg23
g52
sg24
g25
sg26
g53
sg27
F7890324
sg28
F49
sg29
F381285
sg30
F96840
sg31
F111529
sg32
F0.22171945701357465
sg33
F7509039
ssS'BAZELIDES PHILIP J'
p271
(dp272
g4
g37
sg5
F684694
sg7
g50
sg8
I00
sg9
F93750
sg11
g38
sg13
g39
sg14
g15
sg16
g40
sg17
g18
sg19
g41
sg20
g21
sg22
g42
sg23
F874
sg24
g25
sg26
g53
sg27
F1599641
sg28
g43
sg29
g77
sg30
F80818
sg31
F860136
sg32
g44
sg33
F1599641
ssS'BELDEN TIMOTHY N'
p273
(dp274
g4
F7991
sg5
F2144013
sg7
F17355
sg8
I01
sg9
g10
sg11
S'tim.belden@enron.com'
p275
sg13
F228
sg14
F-2334434
sg16
F0.028532098610937303
sg17
g18
sg19
F5521
sg20
g21
sg22
F484
sg23
F210698
sg24
g25
sg26
F5249999
sg27
F1110705
sg28
F108
sg29
F157569
sg30
F213999
sg31
F5501630
sg32
F0.2231404958677686
sg33
F953136
ssS'DURAN WILLIAM D'
p276
(dp277
g4
F904
sg5
g6
sg7
F25785
sg8
I00
sg9
F1105218
sg11
S'w.duran@enron.com'
p278
sg13
F106
sg14
g15
sg16
F0.11725663716814159
sg17
g18
sg19
F599
sg20
g21
sg22
F12
sg23
F1568
sg24
g25
sg26
F750000
sg27
F1640910
sg28
F3
sg29
F189041
sg30
F210692
sg31
F2093263
sg32
F0.25
sg33
F1451869
ssS'THORN TERENCE H'
p279
(dp280
g4
F266
sg5
F16586
sg7
F46145
sg8
I00
sg9
F200000
sg11
S'terence.thorn@enron.com'
p281
sg13
F0
sg14
g15
sg16
F0
sg17
g18
sg19
F73
sg20
g21
sg22
F41
sg23
F426629
sg24
g25
sg26
g53
sg27
F4817796
sg28
F0
sg29
F365320
sg30
F222093
sg31
F911453
sg32
F0
sg33
F4452476
ssS'FASTOW ANDREW S'
p282
(dp283
g4
g37
sg5
g6
sg7
F55921
sg8
I01
sg9
F1736055
sg11
S'andrew.fastow@enron.com'
p284
sg13
g39
sg14
F-1386055
sg16
g40
sg17
g18
sg19
g41
sg20
g21
sg22
g42
sg23
F277464
sg24
g25
sg26
F1300000
sg27
F1794412
sg28
g43
sg29
F1794412
sg30
F440698
sg31
F2424083
sg32
g44
sg33
g34
ssS'FOY JOE'
p285
(dp286
g4
F57
sg5
F181755
sg7
g50
sg8
I00
sg9
g10
sg11
S'tracy.foy@enron.com'
p287
sg13
F0
sg14
g15
sg16
F0
sg17
g18
sg19
F2
sg20
g21
sg22
F13
sg23
g52
sg24
g25
sg26
g53
sg27
F343434
sg28
F0
sg29
g77
sg30
g54
sg31
F181755
sg32
F0
sg33
F343434
ssS'CALGER CHRISTOPHER F'
p288
(dp289
g4
F2598
sg5
g6
sg7
F35818
sg8
I01
sg9
F375304
sg11
S'christopher.calger@enron.com'
p290
sg13
F199
sg14
F-262500
sg16
F0.076597382602001537
sg17
g18
sg19
F2188
sg20
g21
sg22
F144
sg23
F486
sg24
g25
sg26
F1250000
sg27
F126027
sg28
F25
sg29
F126027
sg30
F240189
sg31
F1639297
sg32
F0.1736111111111111
sg33
g34
ssS'RICE KENNETH D'
p291
(dp292
g4
F905
sg5
g6
sg7
F46950
sg8
I01
sg9
F1617011
sg11
S'ken.rice@enron.com'
p293
sg13
F42
sg14
F-3504386
sg16
F0.046408839779005527
sg17
g18
sg19
F864
sg20
g21
sg22
F18
sg23
F174839
sg24
g25
sg26
F1750000
sg27
F22542539
sg28
F4
sg29
F2748364
sg30
F420636
sg31
F505050
sg32
F0.22222222222222221
sg33
F19794175
ssS'KAMINSKI WINCENTY J'
p294
(dp295
g4
F4607
sg5
g6
sg7
F83585
sg8
I00
sg9
F323466
sg11
S'vince.kaminski@enron.com'
p296
sg13
F41
sg14
g15
sg16
F0.0088995007597134791
sg17
g18
sg19
F583
sg20
g21
sg22
F14368
sg23
F4669
sg24
g25
sg26
F400000
sg27
F976037
sg28
F171
sg29
F126027
sg30
F275101
sg31
F1086821
sg32
F0.011901447661469933
sg33
F850010
ssS'LOCKHART EUGENE E'
p297
(dp298
g4
g37
sg5
g6
sg7
g50
sg8
I00
sg9
g10
sg11
g38
sg13
g39
sg14
g15
sg16
g40
sg17
g18
sg19
g41
sg20
g21
sg22
g42
sg23
g52
sg24
g25
sg26
g53
sg27
g81
sg28
g43
sg29
g77
sg30
g54
sg31
g55
sg32
g44
sg33
g34
ssS'COX DAVID'
p299
(dp300
g4
F102
sg5
g6
sg7
F27861
sg8
I00
sg9
g10
sg11
S'chip.cox@enron.com'
p301
sg13
F0
sg14
F-41250
sg16
F0
sg17
g18
sg19
F71
sg20
g21
sg22
F33
sg23
F494
sg24
g25
sg26
F800000
sg27
F495633
sg28
F4
sg29
F378082
sg30
F314288
sg31
F1101393
sg32
F0.12121212121212122
sg33
F117551
ssS'OVERDYKE JR JERE C'
p302
(dp303
g4
g37
sg5
g6
sg7
F18834
sg8
I00
sg9
F135836
sg11
S'jere.overdyke@enron.com'
p304
sg13
g39
sg14
g15
sg16
g40
sg17
g18
sg19
g41
sg20
g21
sg22
g42
sg23
F176
sg24
g25
sg26
g53
sg27
F7307594
sg28
g43
sg29
F2041016
sg30
F94941
sg31
F249787
sg32
g44
sg33
F5266578
ssS'PEREIRA PAULO V. FERRAZ'
p305
(dp306
g4
g37
sg5
g6
sg7
F27942
sg8
I00
sg9
g10
sg11
g38
sg13
g39
sg14
F-101250
sg16
g40
sg17
g18
sg19
g41
sg20
g21
sg22
g42
sg23
g52
sg24
F101250
sg26
g53
sg27
g81
sg28
g43
sg29
g77
sg30
g54
sg31
F27942
sg32
g44
sg33
g34
ssS'STABLER FRANK'
p307
(dp308
g4
g37
sg5
g6
sg7
F16514
sg8
I00
sg9
g10
sg11
S'frank.stabler@enron.com'
p309
sg13
g39
sg14
g15
sg16
g40
sg17
g18
sg19
g41
sg20
g21
sg22
g42
sg23
F356071
sg24
g25
sg26
F500000
sg27
F511734
sg28
g43
sg29
F511734
sg30
F239502
sg31
F1112087
sg32
g44
sg33
g34
ssS'SKILLING JEFFREY K'
p310
(dp311
g4
F3627
sg5
g6
sg7
F29336
sg8
I01
sg9
F1920000
sg11
S'jeff.skilling@enron.com'
p312
sg13
F88
sg14
g15
sg16
F0.024262475875379101
sg17
g18
sg19
F2042
sg20
g21
sg22
F108
sg23
F22122
sg24
g25
sg26
F5600000
sg27
F26093672
sg28
F30
sg29
F6843672
sg30
F1111258
sg31
F8682716
sg32
F0.27777777777777779
sg33
F19250000
ssS'BLAKE JR. NORMAN P'
p313
(dp314
g4
g37
sg5
g6
sg7
F1279
sg8
I00
sg9
g10
sg11
g38
sg13
g39
sg14
F-113784
sg16
g40
sg17
g18
sg19
g41
sg20
g21
sg22
g42
sg23
g52
sg24
F113784
sg26
g53
sg27
g81
sg28
g43
sg29
g77
sg30
g54
sg31
F1279
sg32
g44
sg33
g34
ssS'SHERRICK JEFFREY B'
p315
(dp316
g4
F613
sg5
g6
sg7
g50
sg8
I00
sg9
g10
sg11
S'jeffrey.sherrick@enron.com'
p317
sg13
F39
sg14
g15
sg16
F0.063621533442088096
sg17
g18
sg19
F583
sg20
g21
sg22
F25
sg23
g52
sg24
g25
sg26
g53
sg27
F1832468
sg28
F18
sg29
F405999
sg30
g54
sg31
g55
sg32
F0.71999999999999997
sg33
F1426469
ssS'PRENTICE JAMES'
p318
(dp319
g4
g37
sg5
F564348
sg7
g50
sg8
I00
sg9
g10
sg11
S'james.prentice@enron.com'
p320
sg13
g39
sg14
g15
sg16
g40
sg17
g18
sg19
g41
sg20
g21
sg22
g42
sg23
g52
sg24
g25
sg26
g53
sg27
F1095040
sg28
g43
sg29
F208809
sg30
g54
sg31
F564348
sg32
g44
sg33
F886231
ssS'GRAY RODNEY'
p321
(dp322
g4
g37
sg5
F93585
sg7
g50
sg8
I00
sg9
F365625
sg11
g38
sg13
g39
sg14
g15
sg16
g40
sg17
g18
sg19
g41
sg20
g21
sg22
g42
sg23
F680833
sg24
g25
sg26
g53
sg27
g81
sg28
g43
sg29
g77
sg30
F6615
sg31
F1146658
sg32
g44
sg33
g34
ssS'PICKERING MARK R'
p323
(dp324
g4
F898
sg5
g6
sg7
F31653
sg8
I00
sg9
g10
sg11
S'mark.pickering@enron.com'
p325
sg13
F7
sg14
g15
sg16
F0.0077951002227171495
sg17
g18
sg19
F728
sg20
F400000
sg22
F67
sg23
g52
sg24
g25
sg26
F300000
sg27
F28798
sg28
F0
sg29
g77
sg30
F655037
sg31
F1386690
sg32
F0
sg33
F28798
ssS'THE TRAVEL AGENCY IN THE PARK'
p326
(dp327
g4
g37
sg5
g6
sg7
g50
sg8
I00
sg9
g10
sg11
g38
sg13
g39
sg14
g15
sg16
g40
sg17
g18
sg19
g41
sg20
g21
sg22
g42
sg23
F362096
sg24
g25
sg26
g53
sg27
g81
sg28
g43
sg29
g77
sg30
g54
sg31
F362096
sg32
g44
sg33
g34
ssS'NOLES JAMES L'
p328
(dp329
g4
g37
sg5
F774401
sg7
g50
sg8
I00
sg9
g10
sg11
g38
sg13
g39
sg14
g15
sg16
g40
sg17
F-94556
sg19
g41
sg20
g21
sg22
g42
sg23
g52
sg24
g25
sg26
g53
sg27
F368705
sg28
g43
sg29
F463261
sg30
g54
sg31
F774401
sg32
g44
sg33
g34
ssS'KEAN STEVEN J'
p330
(dp331
g4
F12754
sg5
g6
sg7
F41953
sg8
I00
sg9
F300000
sg11
S'steven.kean@enron.com'
p332
sg13
F140
sg14
g15
sg16
F0.010976948408342482
sg17
g18
sg19
F3639
sg20
g21
sg22
F6759
sg23
F1231
sg24
g25
sg26
F1000000
sg27
F6153642
sg28
F387
sg29
F4131594
sg30
F404338
sg31
F1747522
sg32
F0.057256990679094538
sg33
F2022048
ssS'FOWLER PEGGY'
p333
(dp334
g4
F517
sg5
g6
sg7
g50
sg8
I00
sg9
g10
sg11
S'kulvinder.fowler@enron.com'
p335
sg13
F0
sg14
g15
sg16
F0
sg17
g18
sg19
F10
sg20
g21
sg22
F36
sg23
g52
sg24
g25
sg26
g53
sg27
F1884748
sg28
F0
sg29
F560170
sg30
g54
sg31
g55
sg32
F0
sg33
F1324578
ssS'WASAFF GEORGE'
p336
(dp337
g4
F400
sg5
F831299
sg7
g50
sg8
I00
sg9
F200000
sg11
S'george.wasaff@enron.com'
p338
sg13
F22
sg14
F-583325
sg16
F0.055
sg17
g18
sg19
F337
sg20
g21
sg22
F30
sg23
F1425
sg24
g25
sg26
F325000
sg27
F2056427
sg28
F7
sg29
F388167
sg30
F259996
sg31
F1034395
sg32
F0.23333333333333334
sg33
F1668260
ssS'WHITE JR THOMAS E'
p339
(dp340
g4
g37
sg5
g6
sg7
F81353
sg8
I00
sg9
g10
sg11
S'thomas.white@enron.com'
p341
sg13
g39
sg14
g15
sg16
g40
sg17
g18
sg19
g41
sg20
g21
sg22
g42
sg23
F1085463
sg24
g25
sg26
F450000
sg27
F15144123
sg28
g43
sg29
F13847074
sg30
F317543
sg31
F1934359
sg32
g44
sg33
F1297049
ssS'CHRISTODOULOU DIOMEDES'
p342
(dp343
g4
g37
sg5
g6
sg7
g50
sg8
I00
sg9
g10
sg11
S'diomedes.christodoulou@enron.com'
p344
sg13
g39
sg14
g15
sg16
g40
sg17
g18
sg19
g41
sg20
g21
sg22
g42
sg23
g52
sg24
g25
sg26
g53
sg27
F6077885
sg28
g43
sg29
F950730
sg30
g54
sg31
g55
sg32
g44
sg33
F5127155
ssS'ALLEN PHILLIP K'
p345
(dp346
g4
F2902
sg5
F2869717
sg7
F13868
sg8
I00
sg9
F304805
sg11
S'phillip.allen@enron.com'
p347
sg13
F47
sg14
F-3081055
sg16
F0.016195727084769126
sg17
F-126027
sg19
F1407
sg20
g21
sg22
F2195
sg23
F152
sg24
g25
sg26
F4175000
sg27
F1729541
sg28
F65
sg29
F126027
sg30
F201955
sg31
F4484442
sg32
F0.029612756264236904
sg33
F1729541
ssS'SHARP VICTORIA T'
p348
(dp349
g4
F3136
sg5
F187469
sg7
F116337
sg8
I00
sg9
F422158
sg11
S'vicki.sharp@enron.com'
p350
sg13
F24
sg14
g15
sg16
F0.0076530612244897957
sg17
g18
sg19
F2477
sg20
g21
sg22
F136
sg23
F2401
sg24
g25
sg26
F600000
sg27
F494136
sg28
F6
sg29
F213063
sg30
F248146
sg31
F1576511
sg32
F0.044117647058823532
sg33
F281073
ssS'JAEDICKE ROBERT'
p351
(dp352
g4
g37
sg5
g6
sg7
g50
sg8
I00
sg9
g10
sg11
g38
sg13
g39
sg14
F-25000
sg16
g40
sg17
F-44093
sg19
g41
sg20
g21
sg22
g42
sg23
g52
sg24
F108750
sg26
g53
sg27
F431750
sg28
g43
sg29
F44093
sg30
g54
sg31
F83750
sg32
g44
sg33
F431750
ssS'WINOKUR JR. HERBERT S'
p353
(dp354
g4
g37
sg5
g6
sg7
F1413
sg8
I00
sg9
g10
sg11
g38
sg13
g39
sg14
F-25000
sg16
g40
sg17
g18
sg19
g41
sg20
g21
sg22
g42
sg23
g52
sg24
F108579
sg26
g53
sg27
g81
sg28
g43
sg29
g77
sg30
g54
sg31
F84992
sg32
g44
sg33
g34
ssS'BROWN MICHAEL'
p355
(dp356
g4
F1486
sg5
g6
sg7
F49288
sg8
I00
sg9
g10
sg11
S'michael.brown@enron.com'
p357
sg13
F13
sg14
g15
sg16
F0.0087483176312247637
sg17
g18
sg19
F761
sg20
g21
sg22
F41
sg23
g52
sg24
g25
sg26
g53
sg27
g81
sg28
F1
sg29
g77
sg30
g54
sg31
F49288
sg32
F0.024390243902439025
sg33
g34
ssS'BADUM JAMES P'
p358
(dp359
g4
g37
sg5
F178980
sg7
F3486
sg8
I00
sg9
g10
sg11
g38
sg13
g39
sg14
g15
sg16
g40
sg17
g18
sg19
g41
sg20
g21
sg22
g42
sg23
g52
sg24
g25
sg26
g53
sg27
F257817
sg28
g43
sg29
g77
sg30
g54
sg31
F182466
sg32
g44
sg33
F257817
ssS'HUGHES JAMES A'
p360
(dp361
g4
F719
sg5
g6
sg7
g50
sg8
I00
sg9
g10
sg11
S'james.hughes@enron.com'
p362
sg13
F35
sg14
g15
sg16
F0.048678720445062586
sg17
g18
sg19
F589
sg20
g21
sg22
F34
sg23
g52
sg24
g25
sg26
g53
sg27
F1118394
sg28
F5
sg29
F363428
sg30
g54
sg31
g55
sg32
F0.14705882352941177
sg33
F754966
ssS'REYNOLDS LAWRENCE'
p363
(dp364
g4
g37
sg5
F51365
sg7
F8409
sg8
I00
sg9
F156250
sg11
g38
sg13
g39
sg14
F-200000
sg16
g40
sg17
F-140264
sg19
g41
sg20
g21
sg22
g42
sg23
F202052
sg24
g25
sg26
F100000
sg27
F4221891
sg28
g43
sg29
F201483
sg30
F76399
sg31
F394475
sg32
g44
sg33
F4160672
ssS'DIMICHELE RICHARD G'
p365
(dp366
g4
g37
sg5
g6
sg7
F35812
sg8
I00
sg9
F694862
sg11
S'richard.dimichele@enron.com'
p367
sg13
g39
sg14
g15
sg16
g40
sg17
g18
sg19
g41
sg20
g21
sg22
g42
sg23
F374689
sg24
g25
sg26
F1000000
sg27
F8317782
sg28
g43
sg29
F126027
sg30
F262788
sg31
F2368151
sg32
g44
sg33
F8191755
ssS'BHATNAGAR SANJAY'
p368
(dp369
g4
F523
sg5
g6
sg7
g50
sg8
I00
sg9
g10
sg11
S'sanjay.bhatnagar@enron.com'
p370
sg13
F0
sg14
g15
sg16
F0
sg17
F15456290
sg19
F463
sg20
g21
sg22
F29
sg23
F137864
sg24
F137864
sg26
g53
sg27
g81
sg28
F1
sg29
F-2604490
sg30
g54
sg31
F15456290
sg32
F0.034482758620689655
sg33
F2604490
ssS'CARTER REBECCA C'
p371
(dp372
g4
F312
sg5
g6
sg7
g50
sg8
I00
sg9
F75000
sg11
S'rebecca.carter@enron.com'
p373
sg13
F29
sg14
F-159792
sg16
F0.092948717948717952
sg17
F-307301
sg19
F196
sg20
g21
sg22
F15
sg23
F540
sg24
g25
sg26
F300000
sg27
g81
sg28
F7
sg29
F307301
sg30
F261809
sg31
F477557
sg32
F0.46666666666666667
sg33
g34
ssS'BUCHANAN HAROLD G'
p374
(dp375
g4
F1088
sg5
g6
sg7
F600
sg8
I00
sg9
F304805
sg11
S'john.buchanan@enron.com'
p376
sg13
F0
sg14
g15
sg16
F0
sg17
g18
sg19
F23
sg20
g21
sg22
F125
sg23
F1215
sg24
g25
sg26
F500000
sg27
F1014505
sg28
F0
sg29
F189041
sg30
F248017
sg31
F1054637
sg32
F0
sg33
F825464
ssS'YEAP SOON'
p377
(dp378
g4
g37
sg5
g6
sg7
F55097
sg8
I00
sg9
g10
sg11
g38
sg13
g39
sg14
g15
sg16
g40
sg17
g18
sg19
g41
sg20
g21
sg22
g42
sg23
g52
sg24
g25
sg26
g53
sg27
F192758
sg28
g43
sg29
g77
sg30
g54
sg31
F55097
sg32
g44
sg33
F192758
ssS'MURRAY JULIA H'
p379
(dp380
g4
F2192
sg5
g6
sg7
F57580
sg8
I00
sg9
F125000
sg11
S'julia.murray@enron.com'
p381
sg13
F11
sg14
g15
sg16
F0.0050182481751824817
sg17
g18
sg19
F395
sg20
g21
sg22
F45
sg23
F330
sg24
g25
sg26
F400000
sg27
F597461
sg28
F2
sg29
F196983
sg30
F229284
sg31
F812194
sg32
F0.044444444444444446
sg33
F400478
ssS'GARLAND C KEVIN'
p382
(dp383
g4
F209
sg5
g6
sg7
F48405
sg8
I00
sg9
F375304
sg11
S'kevin.garland@enron.com'
p384
sg13
F10
sg14
g15
sg16
F0.04784688995215311
sg17
g18
sg19
F178
sg20
g21
sg22
F44
sg23
F60814
sg24
g25
sg26
F850000
sg27
F896153
sg28
F27
sg29
F259907
sg30
F231946
sg31
F1566469
sg32
F0.61363636363636365
sg33
F636246
ssS'DODSON KEITH'
p385
(dp386
g4
F176
sg5
g6
sg7
F28164
sg8
I00
sg9
g10
sg11
S'keith.dodson@enron.com'
p387
sg13
F10
sg14
g15
sg16
F0.056818181818181816
sg17
g18
sg19
F114
sg20
g21
sg22
F14
sg23
F774
sg24
g25
sg26
F70000
sg27
g81
sg28
F3
sg29
g77
sg30
F221003
sg31
F319941
sg32
F0.21428571428571427
sg33
g34
ssS'YEAGER F SCOTT'
p388
(dp389
g4
g37
sg5
g6
sg7
F53947
sg8
I01
sg9
g10
sg11
S'scott.yeager@enron.com'
p390
sg13
g39
sg14
g15
sg16
g40
sg17
g18
sg19
g41
sg20
g21
sg22
g42
sg23
F147950
sg24
g25
sg26
g53
sg27
F11884758
sg28
g43
sg29
F3576206
sg30
F158403
sg31
F360300
sg32
g44
sg33
F8308552
ssS'HIRKO JOSEPH'
p391
(dp392
g4
g37
sg5
F10259
sg7
F77978
sg8
I01
sg9
g10
sg11
S'joe.hirko@enron.com'
p393
sg13
g39
sg14
g15
sg16
g40
sg17
g18
sg19
g41
sg20
g21
sg22
g42
sg23
F2856
sg24
g25
sg26
g53
sg27
F30766064
sg28
g43
sg29
g77
sg30
g54
sg31
F91093
sg32
g44
sg33
F30766064
ssS'DIETRICH JANET R'
p394
(dp395
g4
F2572
sg5
g6
sg7
F3475
sg8
I00
sg9
F556416
sg11
S'janet.dietrich@enron.com'
p396
sg13
F305
sg14
g15
sg16
F0.11858475894245724
sg17
g18
sg19
F1902
sg20
g21
sg22
F63
sg23
F473
sg24
g25
sg26
F600000
sg27
F1865087
sg28
F14
sg29
F315068
sg30
F250100
sg31
F1410464
sg32
F0.22222222222222221
sg33
F1550019
ssS'DERRICK JR. JAMES V'
p397
(dp398
g4
F2181
sg5
g6
sg7
F51124
sg8
I00
sg9
F484000
sg11
S'james.derrick@enron.com'
p399
sg13
F64
sg14
F-1284000
sg16
F0.029344337459880788
sg17
F-1787380
sg19
F1401
sg20
g21
sg22
F909
sg23
F7482
sg24
g25
sg26
F800000
sg27
F8831913
sg28
F20
sg29
F1787380
sg30
F492375
sg31
F550981
sg32
F0.022002200220022004
sg33
F8831913
ssS'FREVERT MARK A'
p400
(dp401
g4
F3275
sg5
F6426990
sg7
F86987
sg8
I00
sg9
F1617011
sg11
S'mark.frevert@enron.com'
p402
sg13
F242
sg14
F-3367011
sg16
F0.073893129770992369
sg17
g18
sg19
F2979
sg20
F2000000
sg22
F21
sg23
F7427621
sg24
g25
sg26
F2000000
sg27
F14622185
sg28
F6
sg29
F4188667
sg30
F1060932
sg31
F17252530
sg32
F0.2857142857142857
sg33
F10433518
ssS'PAI LOU L'
p403
(dp404
g4
g37
sg5
g6
sg7
F32047
sg8
I00
sg9
g10
sg11
S'lou.pai@enron.com'
p405
sg13
g39
sg14
g15
sg16
g40
sg17
g18
sg19
g41
sg20
g21
sg22
g42
sg23
F1829457
sg24
g25
sg26
F1000000
sg27
F23817930
sg28
g43
sg29
F8453763
sg30
F261879
sg31
F3123383
sg32
g44
sg33
F15364167
ssS'BAY FRANKLIN R'
p406
(dp407
g4
g37
sg5
F260455
sg7
F129142
sg8
I00
sg9
g10
sg11
S'frank.bay@enron.com'
p408
sg13
g39
sg14
F-201641
sg16
g40
sg17
F-82782
sg19
g41
sg20
g21
sg22
g42
sg23
F69
sg24
g25
sg26
F400000
sg27
F63014
sg28
g43
sg29
F145796
sg30
F239671
sg31
F827696
sg32
g44
sg33
g34
ssS'HAYSLETT RODERICK J'
p409
(dp410
g4
F2649
sg5
g6
sg7
g50
sg8
I00
sg9
g10
sg11
S'rod.hayslett@enron.com'
p411
sg13
F35
sg14
g15
sg16
F0.013212533031332579
sg17
g18
sg19
F571
sg20
g21
sg22
F1061
sg23
g52
sg24
g25
sg26
g53
sg27
F346663
sg28
F38
sg29
F346663
sg30
g54
sg31
g55
sg32
F0.03581526861451461
sg33
g34
ssS'FUGH JOHN L'
p412
(dp413
g4
g37
sg5
F50591
sg7
g50
sg8
I00
sg9
g10
sg11
g38
sg13
g39
sg14
g15
sg16
g40
sg17
g18
sg19
g41
sg20
g21
sg22
g42
sg23
g52
sg24
g25
sg26
g53
sg27
F176378
sg28
g43
sg29
g77
sg30
g54
sg31
F50591
sg32
g44
sg33
F176378
ssS'FALLON JAMES B'
p414
(dp415
g4
F1755
sg5
g6
sg7
F95924
sg8
I00
sg9
F374347
sg11
S'jim.fallon@enron.com'
p416
sg13
F42
sg14
g15
sg16
F0.023931623931623933
sg17
g18
sg19
F1604
sg20
g21
sg22
F75
sg23
F401481
sg24
g25
sg26
F2500000
sg27
F2332399
sg28
F37
sg29
F1392142
sg30
F304588
sg31
F3676340
sg32
F0.49333333333333335
sg33
F940257
ssS'KOENIG MARK E'
p417
(dp418
g4
F2374
sg5
g6
sg7
F127017
sg8
I01
sg9
F300000
sg11
S'mark.koenig@enron.com'
p419
sg13
F53
sg14
g15
sg16
F0.022325189553496209
sg17
g18
sg19
F2271
sg20
g21
sg22
F61
sg23
F150458
sg24
g25
sg26
F700000
sg27
F1920055
sg28
F15
sg29
F1248318
sg30
F309946
sg31
F1587421
sg32
F0.24590163934426229
sg33
F671737
ssS'SAVAGE FRANK'
p420
(dp421
g4
g37
sg5
g6
sg7
g50
sg8
I00
sg9
g10
sg11
g38
sg13
g39
sg14
F-121284
sg16
g40
sg17
g18
sg19
g41
sg20
g21
sg22
g42
sg23
g52
sg24
F125034
sg26
g53
sg27
g81
sg28
g43
sg29
g77
sg30
g54
sg31
F3750
sg32
g44
sg33
g34
ssS'IZZO LAWRENCE L'
p422
(dp423
g4
F496
sg5
g6
sg7
F28093
sg8
I00
sg9
F312500
sg11
S'larry.izzo@enron.com'
p424
sg13
F28
sg14
g15
sg16
F0.056451612903225805
sg17
g18
sg19
F437
sg20
g21
sg22
F19
sg23
F1553729
sg24
g25
sg26
g53
sg27
F5819980
sg28
F5
sg29
F3654808
sg30
F85274
sg31
F1979596
sg32
F0.26315789473684209
sg33
F2165172
ssS'TILNEY ELIZABETH A'
p425
(dp426
g4
F460
sg5
g6
sg7
g50
sg8
I00
sg9
F275000
sg11
S'elizabeth.tilney@enron.com'
p427
sg13
F10
sg14
F-575000
sg16
F0.021739130434782608
sg17
g18
sg19
F379
sg20
g21
sg22
F19
sg23
F152055
sg24
g25
sg26
F300000
sg27
F1168042
sg28
F11
sg29
F576792
sg30
F247338
sg31
F399393
sg32
F0.57894736842105265
sg33
F591250
ssS'MARTIN AMANDA K'
p428
(dp429
g4
F1522
sg5
F85430
sg7
F8211
sg8
I00
sg9
F5145434
sg11
S'a..martin@enron.com'
p430
sg13
F8
sg14
g15
sg16
F0.0052562417871222077
sg17
g18
sg19
F477
sg20
g21
sg22
F230
sg23
F2818454
sg24
g25
sg26
g53
sg27
F2070306
sg28
F0
sg29
g77
sg30
F349487
sg31
F8407016
sg32
F0
sg33
F2070306
ssS'BUY RICHARD B'
p431
(dp432
g4
F3523
sg5
F649584
sg7
g50
sg8
I00
sg9
F769862
sg11
S'rick.buy@enron.com'
p433
sg13
F156
sg14
F-694862
sg16
F0.044280442804428041
sg17
g18
sg19
F2333
sg20
g21
sg22
F1053
sg23
F400572
sg24
g25
sg26
F900000
sg27
F3444470
sg28
F71
sg29
F901657
sg30
F330546
sg31
F2355702
sg32
F0.067426400759734093
sg33
F2542813
ssS'GRAMM WENDY L'
p434
(dp435
g4
g37
sg5
g6
sg7
g50
sg8
I00
sg9
g10
sg11
g38
sg13
g39
sg14
g15
sg16
g40
sg17
g18
sg19
g41
sg20
g21
sg22
g42
sg23
g52
sg24
F119292
sg26
g53
sg27
g81
sg28
g43
sg29
g77
sg30
g54
sg31
F119292
sg32
g44
sg33
g34
ssS'CAUSEY RICHARD A'
p436
(dp437
g4
F1892
sg5
g6
sg7
F30674
sg8
I01
sg9
F350000
sg11
S'richard.causey@enron.com'
p438
sg13
F58
sg14
F-235000
sg16
F0.0306553911205074
sg17
g18
sg19
F1585
sg20
g21
sg22
F49
sg23
F307895
sg24
g25
sg26
F1000000
sg27
F2502063
sg28
F12
sg29
F2502063
sg30
F415189
sg31
F1868758
sg32
F0.24489795918367346
sg33
g34
ssS'TAYLOR MITCHELL S'
p439
(dp440
g4
F533
sg5
F227449
sg7
g50
sg8
I00
sg9
g10
sg11
S'mitchell.taylor@enron.com'
p441
sg13
F0
sg14
g15
sg16
F0
sg17
g18
sg19
F300
sg20
g21
sg22
F29
sg23
g52
sg24
g25
sg26
F600000
sg27
F3745048
sg28
F0
sg29
F563798
sg30
F265214
sg31
F1092663
sg32
F0
sg33
F3181250
ssS'DONAHUE JR JEFFREY M'
p442
(dp443
g4
F865
sg5
g6
sg7
F96268
sg8
I00
sg9
g10
sg11
S'jeff.donahue@enron.com'
p444
sg13
F188
sg14
F-300000
sg16
F0.21734104046242775
sg17
g18
sg19
F772
sg20
g21
sg22
F22
sg23
F891
sg24
g25
sg26
F800000
sg27
F1080988
sg28
F11
sg29
F315068
sg30
F278601
sg31
F875760
sg32
F0.5
sg33
F765920
ssS'GLISAN JR BEN F'
p445
(dp446
g4
F873
sg5
g6
sg7
F125978
sg8
I01
sg9
F71023
sg11
S'ben.glisan@enron.com'
p447
sg13
F52
sg14
g15
sg16
F0.059564719358533788
sg17
g18
sg19
F874
sg20
g21
sg22
F16
sg23
F200308
sg24
g25
sg26
F600000
sg27
F778546
sg28
F6
sg29
F393818
sg30
F274975
sg31
F1272284
sg32
F0.375
sg33
F384728
ss.